	.file	"swap.c"
	.section	.rodata
.LC0:
	.string	"%d,%d\n"
	.text
.globl main
	.type	main, @function
main:
.LFB0:
	.cfi_startproc
	pushq	%rbp
	.cfi_def_cfa_offset 16
	.cfi_offset 6, -16
	movq	%rsp, %rbp
	.cfi_def_cfa_register 6
	subq	$16, %rsp
	movl	$3, -4(%rbp)
	movl	$5, -8(%rbp)
	leaq	-8(%rbp), %rdx
	leaq	-4(%rbp), %rax
	movq	%rdx, %rsi
	movq	%rax, %rdi
	call	swap
	movl	-8(%rbp), %edx
	movl	-4(%rbp), %ecx
	movl	$.LC0, %eax
	movl	%ecx, %esi
	movq	%rax, %rdi
	movl	$0, %eax
	call	printf
	movl	$0, %eax
	leave
	.cfi_def_cfa 7, 8
	ret
	.cfi_endproc
.LFE0:
	.size	main, .-main
	.section	.rodata
.LC1:
	.string	"in function: %d %d\n"
	.text
.globl wrong_swap
	.type	wrong_swap, @function
wrong_swap:
.LFB1:
	.cfi_startproc
	pushq	%rbp
	.cfi_def_cfa_offset 16
	.cfi_offset 6, -16
	movq	%rsp, %rbp
	.cfi_def_cfa_register 6
	subq	$32, %rsp
	movl	%edi, -20(%rbp)
	movl	%esi, -24(%rbp)
	movl	-20(%rbp), %eax
	movl	%eax, -4(%rbp)
	movl	-24(%rbp), %eax
	movl	%eax, -20(%rbp)
	movl	-4(%rbp), %eax
	movl	%eax, -24(%rbp)
	movl	$.LC1, %eax
	movl	-24(%rbp), %edx
	movl	-20(%rbp), %ecx
	movl	%ecx, %esi
	movq	%rax, %rdi
	movl	$0, %eax
	call	printf
	leave
	.cfi_def_cfa 7, 8
	ret
	.cfi_endproc
.LFE1:
	.size	wrong_swap, .-wrong_swap
.globl swap
	.type	swap, @function
swap:
.LFB2:
	.cfi_startproc
	pushq	%rbp
	.cfi_def_cfa_offset 16
	.cfi_offset 6, -16
	movq	%rsp, %rbp
	.cfi_def_cfa_register 6
	subq	$32, %rsp
	movq	%rdi, -24(%rbp)
	movq	%rsi, -32(%rbp)
	movq	-24(%rbp), %rax
	movl	(%rax), %eax
	movl	%eax, -4(%rbp)
	movq	-32(%rbp), %rax
	movl	(%rax), %edx
	movq	-24(%rbp), %rax
	movl	%edx, (%rax)
	movq	-32(%rbp), %rax
	movl	-4(%rbp), %edx
	movl	%edx, (%rax)
	movq	-32(%rbp), %rax
	movl	(%rax), %edx
	movq	-24(%rbp), %rax
	movl	(%rax), %ecx
	movl	$.LC1, %eax
	movl	%ecx, %esi
	movq	%rax, %rdi
	movl	$0, %eax
	call	printf
	leave
	.cfi_def_cfa 7, 8
	ret
	.cfi_endproc
.LFE2:
	.size	swap, .-swap
	.ident	"GCC: (GNU) 4.4.7 20120313 (Red Hat 4.4.7-4)"
	.section	.note.GNU-stack,"",@progbits
